; Function Attrs: mustprogress nofree norecurse nosync nounwind willreturn memory(read, inaccessiblemem: none) uwtable
define internal noundef ptr @_ZNK7rocksdb12_GLOBAL__N_115HashLinkListRep15DynamicIterator3keyEv(ptr nocapture noundef nonnull readonly align 8 dereferenceable(48) %this) unnamed_addr #14 align 2 {
entry:
  %skip_list_iter_ = getelementptr inbounds i8, ptr %this, i64 40
  %0 = load ptr, ptr %skip_list_iter_, align 8
  %cmp.i.not = icmp eq ptr %0, null
  br i1 %cmp.i.not, label %if.end, label %if.then

if.then:                                          ; preds = %entry
  %node_.i = getelementptr inbounds i8, ptr %0, i64 8
  %1 = load ptr, ptr %node_.i, align 8
  %2 = load ptr, ptr %1, align 8
  br label %return

if.end:                                           ; preds = %entry
  %node_.i1 = getelementptr inbounds i8, ptr %this, i64 24
  %3 = load ptr, ptr %node_.i1, align 8
  %key.i = getelementptr inbounds i8, ptr %3, i64 8
  br label %return

return:                                           ; preds = %if.end, %if.then
  %retval.0 = phi ptr [ %2, %if.then ], [ %key.i, %if.end ]
  ret ptr %retval.0
}